; Function Attrs: mustprogress uwtable
define hidden void @_ZN6spacer13spacer_matrix7add_rowERK6vectorI8rationalLb1EjE(ptr noundef nonnull align 8 dereferenceable(16) %0, ptr noundef nonnull readonly align 8 captures(none) dereferenceable(8) %1) local_unnamed_addr #3 align 2 {
  %3 = getelementptr inbounds nuw i8, ptr %0, i64 8
  %4 = load ptr, ptr %3, align 8, !tbaa !12
  %5 = icmp eq ptr %4, null
  br i1 %5, label %12, label %6

6:                                                ; preds = %2
  %7 = getelementptr inbounds i8, ptr %4, i64 -4
  %8 = load i32, ptr %7, align 4, !tbaa !13
  %9 = getelementptr inbounds i8, ptr %4, i64 -8
  %10 = load i32, ptr %9, align 4, !tbaa !13
  %11 = icmp eq i32 %8, %10
  br i1 %11, label %12, label %13

12:                                               ; preds = %6, %2
  tail call void @_ZN6vectorIS_I8rationalLb1EjELb1EjE13expand_vectorEv(ptr noundef nonnull align 8 dereferenceable(8) %3)
  %.pre.i = load ptr, ptr %3, align 8, !tbaa !12
  %.phi.trans.insert.i = getelementptr inbounds i8, ptr %.pre.i, i64 -4
  %.pre2.i = load i32, ptr %.phi.trans.insert.i, align 4, !tbaa !13
  br label %13

13:                                               ; preds = %12, %6
  %14 = phi i32 [ %.pre2.i, %12 ], [ %8, %6 ]
  %.pr = phi ptr [ %.pre.i, %12 ], [ %4, %6 ]
  %15 = zext i32 %14 to i64
  %16 = getelementptr inbounds nuw %class.vector.0, ptr %.pr, i64 %15
  store ptr null, ptr %16, align 8, !tbaa !16
  %17 = load ptr, ptr %1, align 8, !tbaa !16
  %.not.i.i = icmp eq ptr %17, null
  br i1 %.not.i.i, label %_ZN6vectorIS_I8rationalLb1EjELb1EjE9push_backERKS1_.exit, label %_ZNK6vectorI8rationalLb1EjE8capacityEv.exit.i.i.i

_ZNK6vectorI8rationalLb1EjE8capacityEv.exit.i.i.i: ; preds = %13
  %18 = getelementptr inbounds i8, ptr %17, i64 -4
  %19 = load i32, ptr %18, align 4, !tbaa !13
  %20 = getelementptr inbounds i8, ptr %17, i64 -8
  %21 = load i32, ptr %20, align 4, !tbaa !13
  %22 = zext i32 %21 to i64
  %23 = shl nuw nsw i64 %22, 5
  %24 = or disjoint i64 %23, 8
  %25 = tail call noalias noundef ptr @_ZN6memory8allocateEm(i64 noundef %24)
  store i32 %21, ptr %25, align 4, !tbaa !13
  %26 = getelementptr inbounds nuw i8, ptr %25, i64 4
  store i32 %19, ptr %26, align 4, !tbaa !13
  %27 = getelementptr inbounds nuw i8, ptr %25, i64 8
  store ptr %27, ptr %16, align 8, !tbaa !16
  %28 = load ptr, ptr %1, align 8, !tbaa !16
  %29 = icmp eq ptr %28, null
  br i1 %29, label %_ZN6vectorIS_I8rationalLb1EjELb1EjE9push_backERKS1_.exit.thread, label %30

30:                                               ; preds = %_ZNK6vectorI8rationalLb1EjE8capacityEv.exit.i.i.i
  %31 = getelementptr inbounds i8, ptr %28, i64 -4
  %32 = load i32, ptr %31, align 4, !tbaa !13
  %33 = zext i32 %32 to i64
  br label %_ZN6vectorIS_I8rationalLb1EjELb1EjE9push_backERKS1_.exit.thread

_ZN6vectorIS_I8rationalLb1EjELb1EjE9push_backERKS1_.exit.thread: ; preds = %_ZNK6vectorI8rationalLb1EjE8capacityEv.exit.i.i.i, %30
  %.0.i.i.i.i.i = phi i64 [ %33, %30 ], [ 0, %_ZNK6vectorI8rationalLb1EjE8capacityEv.exit.i.i.i ]
  %34 = getelementptr inbounds nuw %class.rational, ptr %28, i64 %.0.i.i.i.i.i
  %35 = tail call noundef ptr @_ZSt16__do_uninit_copyIPK8rationalPS0_ET0_T_S5_S4_(ptr noundef %28, ptr noundef %34, ptr noundef nonnull %27)
  %.pre3.i = load ptr, ptr %3, align 8, !tbaa !12
  %.phi.trans.insert4.i = getelementptr inbounds i8, ptr %.pre3.i, i64 -4
  %.pre5.i = load i32, ptr %.phi.trans.insert4.i, align 4, !tbaa !13
  %36 = add i32 %.pre5.i, 1
  store i32 %36, ptr %.phi.trans.insert4.i, align 4, !tbaa !13
  br label %_ZNK6vectorIS_I8rationalLb1EjELb1EjE4sizeEv.exit

_ZN6vectorIS_I8rationalLb1EjELb1EjE9push_backERKS1_.exit: ; preds = %13
  %37 = getelementptr inbounds i8, ptr %.pr, i64 -4
  %38 = add i32 %14, 1
  store i32 %38, ptr %37, align 4, !tbaa !13
  br label %_ZNK6vectorIS_I8rationalLb1EjELb1EjE4sizeEv.exit

_ZNK6vectorIS_I8rationalLb1EjELb1EjE4sizeEv.exit: ; preds = %_ZN6vectorIS_I8rationalLb1EjELb1EjE9push_backERKS1_.exit.thread, %_ZN6vectorIS_I8rationalLb1EjELb1EjE9push_backERKS1_.exit
  %39 = phi i32 [ %36, %_ZN6vectorIS_I8rationalLb1EjELb1EjE9push_backERKS1_.exit.thread ], [ %38, %_ZN6vectorIS_I8rationalLb1EjELb1EjE9push_backERKS1_.exit ]
  store i32 %39, ptr %0, align 8, !tbaa !3
  ret void
}